; Function Attrs: mustprogress uwtable
define noundef double @_ZNK8QuantLib17FuturesRateHelper19convexityAdjustmentEv(ptr noundef nonnull align 8 dereferenceable(200) %this) local_unnamed_addr #7 align 2 {
entry:
  %convAdj_ = getelementptr inbounds nuw i8, ptr %this, i64 184
  %0 = load ptr, ptr %convAdj_, align 8, !tbaa !43
  %cmp.not.i.i = icmp eq ptr %0, null
  br i1 %cmp.not.i.i, label %cond.false.i.i, label %_ZNK8QuantLib6HandleINS_5QuoteEE5emptyEv.exit, !prof !80

cond.false.i.i:                                   ; preds = %entry
  tail call void @_ZN5boost16assertion_failedEPKcS1_S1_l(ptr noundef nonnull @.str.23, ptr noundef nonnull @__PRETTY_FUNCTION__._ZNK5boost10shared_ptrIN8QuantLib6HandleINS1_5QuoteEE4LinkEEptEv, ptr noundef nonnull @.str.24, i64 noundef 784)
  %.pre.i.i = load ptr, ptr %convAdj_, align 8, !tbaa !43
  br label %_ZNK8QuantLib6HandleINS_5QuoteEE5emptyEv.exit

_ZNK8QuantLib6HandleINS_5QuoteEE5emptyEv.exit:    ; preds = %entry, %cond.false.i.i
  %1 = phi ptr [ %0, %entry ], [ %.pre.i.i, %cond.false.i.i ]
  %h_.i.i = getelementptr inbounds nuw i8, ptr %1, i64 112
  %2 = load ptr, ptr %h_.i.i, align 8, !tbaa !72
  %cmp.i.i.i = icmp eq ptr %2, null
  br i1 %cmp.i.i.i, label %cond.end, label %cond.false

cond.false:                                       ; preds = %_ZNK8QuantLib6HandleINS_5QuoteEE5emptyEv.exit
  %call3 = tail call noundef nonnull align 8 dereferenceable(16) ptr @_ZNK8QuantLib6HandleINS_5QuoteEEptEv(ptr noundef nonnull align 8 dereferenceable(16) %convAdj_)
  %3 = load ptr, ptr %call3, align 8, !tbaa !72
  %cmp.not.i = icmp eq ptr %3, null
  br i1 %cmp.not.i, label %cond.false.i, label %_ZNK5boost10shared_ptrIN8QuantLib5QuoteEEptEv.exit, !prof !80

cond.false.i:                                     ; preds = %cond.false
  tail call void @_ZN5boost16assertion_failedEPKcS1_S1_l(ptr noundef nonnull @.str.23, ptr noundef nonnull @__PRETTY_FUNCTION__._ZNK5boost10shared_ptrIN8QuantLib5QuoteEEptEv, ptr noundef nonnull @.str.24, i64 noundef 784)
  %.pre.i = load ptr, ptr %call3, align 8, !tbaa !72
  br label %_ZNK5boost10shared_ptrIN8QuantLib5QuoteEEptEv.exit

_ZNK5boost10shared_ptrIN8QuantLib5QuoteEEptEv.exit: ; preds = %cond.false, %cond.false.i
  %4 = phi ptr [ %3, %cond.false ], [ %.pre.i, %cond.false.i ]
  %vtable = load ptr, ptr %4, align 8, !tbaa !35
  %vfn = getelementptr inbounds i8, ptr %vtable, i64 16
  %5 = load ptr, ptr %vfn, align 8
  %call5 = tail call noundef double %5(ptr noundef nonnull align 8 dereferenceable(8) %4)
  br label %cond.end

cond.end:                                         ; preds = %_ZNK8QuantLib6HandleINS_5QuoteEE5emptyEv.exit, %_ZNK5boost10shared_ptrIN8QuantLib5QuoteEEptEv.exit
  %cond = phi double [ %call5, %_ZNK5boost10shared_ptrIN8QuantLib5QuoteEEptEv.exit ], [ 0.000000e+00, %_ZNK8QuantLib6HandleINS_5QuoteEE5emptyEv.exit ]
  ret double %cond
}